target datalayout = "e-m:e-p270:32:32-p271:32:32-p272:64:64-i64:64-i128:128-f80:128-n8:16:32:64-S128"
target triple = "x86_64-pc-linux-gnu"

@.str.2 = private unnamed_addr constant [101 x i8] c"generated/home/dtcxzyw/WorkSpace/Projects/compilers/llvm-opt-benchmark/bench/hdf5/hdf5/src/H5PLint.c\00", align 1
@H5E_PLUGIN_g = external global i64, align 8
@__func__.H5PL_term_package = private unnamed_addr constant [18 x i8] c"H5PL_term_package\00", align 1
@H5E_CANTFREE_g = external global i64, align 8
@.str.5 = private unnamed_addr constant [29 x i8] c"problem closing plugin cache\00", align 1
@.str.6 = private unnamed_addr constant [34 x i8] c"problem closing search path table\00", align 1

; Function Attrs: nounwind uwtable
define i32 @H5PL_term_package() #0 {
  %1 = alloca i8, align 1
  %2 = alloca i32, align 4
  %3 = alloca i8, align 1
  store i8 0, ptr %1, align 1
  store i32 0, ptr %2, align 4
  store i8 0, ptr %3, align 1
  %4 = call i32 @H5PL__close_plugin_cache(ptr noundef %1)
  %5 = icmp slt i32 %4, 0
  br i1 %5, label %6, label %21

6:                                                ; preds = %0
  br label %7

7:                                                ; preds = %6
  br label %8

8:                                                ; preds = %7
  br label %9

9:                                                ; preds = %8
  %10 = load i64, ptr @H5E_PLUGIN_g, align 8
  %11 = load i64, ptr @H5E_CANTFREE_g, align 8
  %12 = call i32 (ptr, ptr, i32, i64, i64, ptr, ...) @H5E_printf_stack(ptr noundef @.str.2, ptr noundef @__func__.H5PL_term_package, i32 noundef 185, i64 noundef %10, i64 noundef %11, ptr noundef @.str.5)
  br label %13

13:                                               ; preds = %9
  store i8 1, ptr %3, align 1
  %14 = load i8, ptr %3, align 1
  %15 = trunc i8 %14 to i1
  %16 = zext i1 %15 to i8
  store i8 %16, ptr %3, align 1
  br label %17

17:                                               ; preds = %13
  br label %18

18:                                               ; preds = %17
  store i32 -1, ptr %2, align 4
  br label %46

19:                                               ; No predecessors!
  br label %20

20:                                               ; preds = %19
  br label %21

21:                                               ; preds = %20, %0
  %22 = load i8, ptr %1, align 1
  %23 = trunc i8 %22 to i1
  br i1 %23, label %27, label %24

24:                                               ; preds = %21
  %25 = load i32, ptr %2, align 4
  %26 = add nsw i32 %25, 1
  store i32 %26, ptr %2, align 4
  br label %27

27:                                               ; preds = %24, %21
  %28 = call i32 @H5PL__close_path_table()
  %29 = icmp slt i32 %28, 0
  br i1 %29, label %30, label %45

30:                                               ; preds = %27
  br label %31

31:                                               ; preds = %30
  br label %32

32:                                               ; preds = %31
  br label %33

33:                                               ; preds = %32
  %34 = load i64, ptr @H5E_PLUGIN_g, align 8
  %35 = load i64, ptr @H5E_CANTFREE_g, align 8
  %36 = call i32 (ptr, ptr, i32, i64, i64, ptr, ...) @H5E_printf_stack(ptr noundef @.str.2, ptr noundef @__func__.H5PL_term_package, i32 noundef 191, i64 noundef %34, i64 noundef %35, ptr noundef @.str.6)
  br label %37

37:                                               ; preds = %33
  store i8 1, ptr %3, align 1
  %38 = load i8, ptr %3, align 1
  %39 = trunc i8 %38 to i1
  %40 = zext i1 %39 to i8
  store i8 %40, ptr %3, align 1
  br label %41

41:                                               ; preds = %37
  br label %42

42:                                               ; preds = %41
  store i32 -1, ptr %2, align 4
  br label %46

43:                                               ; No predecessors!
  br label %44

44:                                               ; preds = %43
  br label %45

45:                                               ; preds = %44, %27
  br label %46

46:                                               ; preds = %45, %42, %18
  %47 = load i32, ptr %2, align 4
  ret i32 %47
}