; Function Attrs: nounwind uwtable
define range(i32 -1, 2) i32 @H5PL_term_package() local_unnamed_addr #2 {
  %1 = alloca i8, align 1
  store i8 0, ptr %1, align 1
  %2 = call i32 @H5PL__close_plugin_cache(ptr noundef nonnull %1) #6
  %3 = icmp slt i32 %2, 0
  br i1 %3, label %4, label %8

4:                                                ; preds = %0
  %5 = load i64, ptr @H5E_PLUGIN_g, align 8
  %6 = load i64, ptr @H5E_CANTFREE_g, align 8
  %7 = call i32 (ptr, ptr, i32, i64, i64, ptr, ...) @H5E_printf_stack(ptr noundef nonnull @.str.2, ptr noundef nonnull @__func__.H5PL_term_package, i32 noundef 185, i64 noundef %5, i64 noundef %6, ptr noundef nonnull @.str.5) #6
  br label %18

8:                                                ; preds = %0
  %9 = load i8, ptr %1, align 1
  %10 = and i8 %9, 1
  %11 = xor i8 %10, 1
  %spec.select = zext nneg i8 %11 to i32
  %12 = call i32 @H5PL__close_path_table() #6
  %13 = icmp slt i32 %12, 0
  br i1 %13, label %14, label %18

14:                                               ; preds = %8
  %15 = load i64, ptr @H5E_PLUGIN_g, align 8
  %16 = load i64, ptr @H5E_CANTFREE_g, align 8
  %17 = call i32 (ptr, ptr, i32, i64, i64, ptr, ...) @H5E_printf_stack(ptr noundef nonnull @.str.2, ptr noundef nonnull @__func__.H5PL_term_package, i32 noundef 191, i64 noundef %15, i64 noundef %16, ptr noundef nonnull @.str.6) #6
  br label %18

18:                                               ; preds = %8, %14, %4
  %.0 = phi i32 [ -1, %4 ], [ -1, %14 ], [ %spec.select, %8 ]
  ret i32 %.0
}